; Function Attrs: mustprogress uwtable
define hidden void @_ZN6spacer10iuc_solver3popEj(ptr nocapture noundef nonnull align 8 dereferenceable(398) %this, i32 noundef %n) unnamed_addr #3 align 2 {
entry:
  %m_solver = getelementptr inbounds i8, ptr %this, i64 96
  %0 = load ptr, ptr %m_solver, align 8
  %vtable = load ptr, ptr %0, align 8
  %vfn = getelementptr inbounds i8, ptr %vtable, i64 200
  %1 = load ptr, ptr %vfn, align 8
  tail call void %1(ptr noundef nonnull align 8 dereferenceable(96) %0, i32 noundef %n)
  %m_defs = getelementptr inbounds i8, ptr %this, i64 128
  %2 = load ptr, ptr %m_defs, align 8
  %cmp.i = icmp eq ptr %2, null
  br i1 %cmp.i, label %while.end, label %_ZNK6vectorIN6spacer10iuc_solver11def_managerELb1EjE4sizeEv.exit6.lr.ph

_ZNK6vectorIN6spacer10iuc_solver11def_managerELb1EjE4sizeEv.exit6.lr.ph: ; preds = %entry
  %arrayidx.i = getelementptr inbounds i8, ptr %2, i64 -4
  %3 = load i32, ptr %arrayidx.i, align 4
  %sub = sub i32 %3, %n
  %m_num_proxies = getelementptr inbounds i8, ptr %this, i64 120
  br label %_ZNK6vectorIN6spacer10iuc_solver11def_managerELb1EjE4sizeEv.exit6

_ZNK6vectorIN6spacer10iuc_solver11def_managerELb1EjE4sizeEv.exit6: ; preds = %_ZNK6vectorIN6spacer10iuc_solver11def_managerELb1EjE4sizeEv.exit6.lr.ph, %_ZN6vectorIN6spacer10iuc_solver11def_managerELb1EjE8pop_backEv.exit
  %4 = phi ptr [ %2, %_ZNK6vectorIN6spacer10iuc_solver11def_managerELb1EjE4sizeEv.exit6.lr.ph ], [ %16, %_ZN6vectorIN6spacer10iuc_solver11def_managerELb1EjE8pop_backEv.exit ]
  %arrayidx.i4 = getelementptr inbounds i8, ptr %4, i64 -4
  %5 = load i32, ptr %arrayidx.i4, align 4
  %cmp = icmp ugt i32 %5, %sub
  br i1 %cmp, label %_ZN6vectorIN6spacer10iuc_solver11def_managerELb1EjE4backEv.exit, label %while.end

_ZN6vectorIN6spacer10iuc_solver11def_managerELb1EjE4backEv.exit: ; preds = %_ZNK6vectorIN6spacer10iuc_solver11def_managerELb1EjE4sizeEv.exit6
  %6 = add i32 %5, -1
  %7 = zext i32 %6 to i64
  %m_nodes.i = getelementptr inbounds %"struct.spacer::iuc_solver::def_manager", ptr %4, i64 %7, i32 1, i32 0, i32 1
  %8 = load ptr, ptr %m_nodes.i, align 8
  %cmp.i.i7 = icmp eq ptr %8, null
  br i1 %cmp.i.i7, label %_ZN6vectorIN6spacer10iuc_solver11def_managerELb1EjE8pop_backEv.exit, label %if.end.i.i8

if.end.i.i8:                                      ; preds = %_ZN6vectorIN6spacer10iuc_solver11def_managerELb1EjE4backEv.exit
  %arrayidx.i.i9 = getelementptr inbounds i8, ptr %8, i64 -4
  %9 = load i32, ptr %arrayidx.i.i9, align 4
  br label %_ZN6vectorIN6spacer10iuc_solver11def_managerELb1EjE8pop_backEv.exit

_ZN6vectorIN6spacer10iuc_solver11def_managerELb1EjE8pop_backEv.exit: ; preds = %_ZN6vectorIN6spacer10iuc_solver11def_managerELb1EjE4backEv.exit, %if.end.i.i8
  %retval.0.i.i10 = phi i32 [ %9, %if.end.i.i8 ], [ 0, %_ZN6vectorIN6spacer10iuc_solver11def_managerELb1EjE4backEv.exit ]
  %10 = load i32, ptr %m_num_proxies, align 8
  %sub8 = sub i32 %10, %retval.0.i.i10
  store i32 %sub8, ptr %m_num_proxies, align 8
  %11 = load i32, ptr %arrayidx.i4, align 4
  %12 = add i32 %11, -1
  %13 = zext i32 %12 to i64
  %arrayidx.i1.i.i = getelementptr inbounds %"struct.spacer::iuc_solver::def_manager", ptr %4, i64 %13
  tail call void @_ZN6spacer10iuc_solver11def_managerD2Ev(ptr noundef nonnull align 8 dereferenceable(72) %arrayidx.i1.i.i) #21
  %14 = load ptr, ptr %m_defs, align 8
  %arrayidx.i11 = getelementptr inbounds i8, ptr %14, i64 -4
  %15 = load i32, ptr %arrayidx.i11, align 4
  %dec.i = add i32 %15, -1
  store i32 %dec.i, ptr %arrayidx.i11, align 4
  %16 = load ptr, ptr %m_defs, align 8
  %cmp.i2 = icmp eq ptr %16, null
  br i1 %cmp.i2, label %while.end, label %_ZNK6vectorIN6spacer10iuc_solver11def_managerELb1EjE4sizeEv.exit6, !llvm.loop !6

while.end:                                        ; preds = %_ZNK6vectorIN6spacer10iuc_solver11def_managerELb1EjE4sizeEv.exit6, %_ZN6vectorIN6spacer10iuc_solver11def_managerELb1EjE8pop_backEv.exit, %entry
  ret void
}